Certificate:
    Data:
        Version: 3 (0x2)
        Serial Number: 2 (0x2)
        Signature Algorithm: sha1WithRSAEncryption
        Issuer: C=CN, ST=SH, L=ShangHai, O=wy, OU=wy, CN=wy CA/emailAddress=whingercn@163.com
        Validity
            Not Before: May  4 06:16:16 2014 GMT
            Not After : May  1 06:16:16 2024 GMT
        Subject: C=CN, ST=SH, L=ShangHai, O=wy, OU=wy, CN=client4tk1/emailAddress=whingercn@163.com
        Subject Public Key Info:
            Public Key Algorithm: rsaEncryption
            RSA Public Key: (1024 bit)
                Modulus (1024 bit):
                    00:d0:bd:1d:f4:69:9f:bd:17:ad:74:e7:16:a2:7e:
                    1b:10:9c:6c:2d:73:66:42:07:fc:61:88:ee:2f:50:
                    9c:3c:0d:ea:5d:cd:1e:28:b2:79:19:57:9e:e6:25:
                    d3:a6:b8:d5:2c:41:7e:12:04:e5:36:d0:b8:c7:b3:
                    fb:c6:b7:f1:15:7f:0f:fb:3b:27:31:02:7b:f8:33:
                    31:75:2c:3f:14:14:5d:fe:82:c8:64:62:c6:be:63:
                    9f:16:d8:fb:42:8b:ad:4e:ab:e7:73:93:47:23:36:
                    22:3a:89:44:e2:b9:37:d7:6c:b6:94:b2:ef:45:17:
                    de:24:0a:8e:6f:77:73:af:9f
                Exponent: 65537 (0x10001)
        X509v3 extensions:
            X509v3 Basic Constraints: 
                CA:FALSE
            Netscape Comment: 
                Easy-RSA Generated Certificate
            X509v3 Subject Key Identifier: 
                C7:29:E6:85:07:68:2A:78:41:11:1D:3F:9B:D6:D8:24:26:01:2A:79
            X509v3 Authority Key Identifier: 
                keyid:F1:23:F0:86:44:78:62:58:0F:2A:6C:72:0F:22:FD:F9:46:2F:A4:F9
                DirName:/C=CN/ST=SH/L=ShangHai/O=wy/OU=wy/CN=wy CA/emailAddress=whingercn@163.com
                serial:9B:21:A8:1A:C0:5B:05:13

            X509v3 Extended Key Usage: 
                TLS Web Client Authentication
            X509v3 Key Usage: 
                Digital Signature
    Signature Algorithm: sha1WithRSAEncryption
        82:1c:4a:b9:c2:0c:d5:bd:05:05:73:91:0b:de:8a:e8:a7:32:
        48:b7:45:73:50:ec:82:07:86:ac:fb:26:3c:42:11:ff:f6:69:
        db:f0:54:90:3d:52:f6:2f:78:b2:d8:7e:2e:f1:e9:43:97:fb:
        a0:02:e0:5d:be:f8:cb:d2:7c:f0:02:ec:01:aa:ba:ac:1d:32:
        8e:33:c5:a9:aa:66:87:0c:43:10:85:41:1d:a3:55:28:86:6a:
        81:4b:d9:9e:2c:e2:2f:86:dd:b3:c7:71:f4:19:92:d8:a0:f0:
        fa:d8:e3:07:73:53:ee:e3:b0:80:35:ff:29:55:95:d0:7d:c3:
        16:05
-----BEGIN CERTIFICATE-----
MIIDnDCCAwWgAwIBAgIBAjANBgkqhkiG9w0BAQUFADB5MQswCQYDVQQGEwJDTjEL
MAkGA1UECBMCU0gxETAPBgNVBAcTCFNoYW5nSGFpMQswCQYDVQQKEwJ3eTELMAkG
A1UECxMCd3kxDjAMBgNVBAMTBXd5IENBMSAwHgYJKoZIhvcNAQkBFhF3aGluZ2Vy
Y25AMTYzLmNvbTAeFw0xNDA1MDQwNjE2MTZaFw0yNDA1MDEwNjE2MTZaMH4xCzAJ
BgNVBAYTAkNOMQswCQYDVQQIEwJTSDERMA8GA1UEBxMIU2hhbmdIYWkxCzAJBgNV
BAoTAnd5MQswCQYDVQQLEwJ3eTETMBEGA1UEAxMKY2xpZW50NHRrMTEgMB4GCSqG
SIb3DQEJARYRd2hpbmdlcmNuQDE2My5jb20wgZ8wDQYJKoZIhvcNAQEBBQADgY0A
MIGJAoGBANC9HfRpn70XrXTnFqJ+GxCcbC1zZkIH/GGI7i9QnDwN6l3NHiiyeRlX
nuYl06a41SxBfhIE5TbQuMez+8a38RV/D/s7JzECe/gzMXUsPxQUXf6CyGRixr5j
nxbY+0KLrU6r53OTRyM2IjqJROK5N9dstpSy70UX3iQKjm93c6+fAgMBAAGjggEt
MIIBKTAJBgNVHRMEAjAAMC0GCWCGSAGG+EIBDQQgFh5FYXN5LVJTQSBHZW5lcmF0
ZWQgQ2VydGlmaWNhdGUwHQYDVR0OBBYEFMcp5oUHaCp4QREdP5vW2CQmASp5MIGr
BgNVHSMEgaMwgaCAFPEj8IZEeGJYDypscg8i/flGL6T5oX2kezB5MQswCQYDVQQG
EwJDTjELMAkGA1UECBMCU0gxETAPBgNVBAcTCFNoYW5nSGFpMQswCQYDVQQKEwJ3
eTELMAkGA1UECxMCd3kxDjAMBgNVBAMTBXd5IENBMSAwHgYJKoZIhvcNAQkBFhF3
aGluZ2VyY25AMTYzLmNvbYIJAJshqBrAWwUTMBMGA1UdJQQMMAoGCCsGAQUFBwMC
MAsGA1UdDwQEAwIHgDANBgkqhkiG9w0BAQUFAAOBgQCCHEq5wgzVvQUFc5EL3oro
pzJIt0VzUOyCB4as+yY8QhH/9mnb8FSQPVL2L3iy2H4u8elDl/ugAuBdvvjL0nzw
AuwBqrqsHTKOM8WpqmaHDEMQhUEdo1UohmqBS9meLOIvht2zx3H0GZLYoPD62OMH
c1Pu47CANf8pVZXQfcMWBQ==
-----END CERTIFICATE-----
